target datalayout = "e-m:e-p270:32:32-p271:32:32-p272:64:64-i64:64-i128:128-f80:128-n8:16:32:64-S128"
target triple = "x86_64-pc-linux-gnu"

@.str.2 = private unnamed_addr constant [99 x i8] c"generated/home/dtcxzyw/WorkSpace/Projects/compilers/llvm-opt-benchmark/bench/hdf5/hdf5/src/H5Doh.c\00", align 1
@H5E_CANTGET_g = external global i64, align 8
@__func__.H5O__dset_get_oloc = private unnamed_addr constant [19 x i8] c"H5O__dset_get_oloc\00", align 1
@H5E_OHDR_g = external global i64, align 8
@H5E_BADID_g = external global i64, align 8
@.str.12 = private unnamed_addr constant [28 x i8] c"couldn't get object from ID\00", align 1
@.str.13 = private unnamed_addr constant [42 x i8] c"unable to get object location from object\00", align 1

; Function Attrs: nounwind uwtable
define internal ptr @H5O__dset_get_oloc(i64 noundef %0) #0 {
  %2 = alloca i64, align 8
  %3 = alloca ptr, align 8
  %4 = alloca ptr, align 8
  %5 = alloca i8, align 1
  store i64 %0, ptr %2, align 8
  store ptr null, ptr %4, align 8
  store i8 0, ptr %5, align 1
  %6 = load i64, ptr %2, align 8
  %7 = call ptr @H5VL_object(i64 noundef %6)
  store ptr %7, ptr %3, align 8
  %8 = icmp eq ptr null, %7
  br i1 %8, label %9, label %24

9:                                                ; preds = %1
  br label %10

10:                                               ; preds = %9
  br label %11

11:                                               ; preds = %10
  br label %12

12:                                               ; preds = %11
  %13 = load i64, ptr @H5E_OHDR_g, align 8
  %14 = load i64, ptr @H5E_BADID_g, align 8
  %15 = call i32 (ptr, ptr, i32, i64, i64, ptr, ...) @H5E_printf_stack(ptr noundef @.str.2, ptr noundef @__func__.H5O__dset_get_oloc, i32 noundef 312, i64 noundef %13, i64 noundef %14, ptr noundef @.str.12)
  br label %16

16:                                               ; preds = %12
  store i8 1, ptr %5, align 1
  %17 = load i8, ptr %5, align 1
  %18 = trunc i8 %17 to i1
  %19 = zext i1 %18 to i8
  store i8 %19, ptr %5, align 1
  br label %20

20:                                               ; preds = %16
  br label %21

21:                                               ; preds = %20
  store ptr null, ptr %4, align 8
  br label %44

22:                                               ; No predecessors!
  br label %23

23:                                               ; preds = %22
  br label %24

24:                                               ; preds = %23, %1
  %25 = load ptr, ptr %3, align 8
  %26 = call ptr @H5D_oloc(ptr noundef %25)
  store ptr %26, ptr %4, align 8
  %27 = icmp eq ptr null, %26
  br i1 %27, label %28, label %43

28:                                               ; preds = %24
  br label %29

29:                                               ; preds = %28
  br label %30

30:                                               ; preds = %29
  br label %31

31:                                               ; preds = %30
  %32 = load i64, ptr @H5E_OHDR_g, align 8
  %33 = load i64, ptr @H5E_CANTGET_g, align 8
  %34 = call i32 (ptr, ptr, i32, i64, i64, ptr, ...) @H5E_printf_stack(ptr noundef @.str.2, ptr noundef @__func__.H5O__dset_get_oloc, i32 noundef 316, i64 noundef %32, i64 noundef %33, ptr noundef @.str.13)
  br label %35

35:                                               ; preds = %31
  store i8 1, ptr %5, align 1
  %36 = load i8, ptr %5, align 1
  %37 = trunc i8 %36 to i1
  %38 = zext i1 %37 to i8
  store i8 %38, ptr %5, align 1
  br label %39

39:                                               ; preds = %35
  br label %40

40:                                               ; preds = %39
  store ptr null, ptr %4, align 8
  br label %44

41:                                               ; No predecessors!
  br label %42

42:                                               ; preds = %41
  br label %43

43:                                               ; preds = %42, %24
  br label %44

44:                                               ; preds = %43, %40, %21
  %45 = load ptr, ptr %4, align 8
  ret ptr %45
}