; Function Attrs: nounwind uwtable
define internal ptr @H5O__dset_get_oloc(i64 noundef %0) #0 {
  %2 = tail call ptr @H5VL_object(i64 noundef %0) #3
  %3 = icmp eq ptr %2, null
  br i1 %3, label %4, label %8

4:                                                ; preds = %1
  %5 = load i64, ptr @H5E_OHDR_g, align 8
  %6 = load i64, ptr @H5E_BADID_g, align 8
  %7 = tail call i32 (ptr, ptr, i32, i64, i64, ptr, ...) @H5E_printf_stack(ptr noundef nonnull @.str.2, ptr noundef nonnull @__func__.H5O__dset_get_oloc, i32 noundef 312, i64 noundef %5, i64 noundef %6, ptr noundef nonnull @.str.12) #3
  br label %15

8:                                                ; preds = %1
  %9 = tail call ptr @H5D_oloc(ptr noundef nonnull %2) #3
  %10 = icmp eq ptr %9, null
  br i1 %10, label %11, label %15

11:                                               ; preds = %8
  %12 = load i64, ptr @H5E_OHDR_g, align 8
  %13 = load i64, ptr @H5E_CANTGET_g, align 8
  %14 = tail call i32 (ptr, ptr, i32, i64, i64, ptr, ...) @H5E_printf_stack(ptr noundef nonnull @.str.2, ptr noundef nonnull @__func__.H5O__dset_get_oloc, i32 noundef 316, i64 noundef %12, i64 noundef %13, ptr noundef nonnull @.str.13) #3
  br label %15

15:                                               ; preds = %8, %11, %4
  %.0 = phi ptr [ null, %4 ], [ null, %11 ], [ %9, %8 ]
  ret ptr %.0
}